target datalayout = "e-m:e-p270:32:32-p271:32:32-p272:64:64-i64:64-i128:128-f80:128-n8:16:32:64-S128"
target triple = "x86_64-pc-linux-gnu"

%struct.anon.6 = type { i8 }
%struct.anon.7 = type { i8 }
%struct.anon.8 = type { i8 }
%struct.anon.40 = type { i8 }
%"struct.hb::shared_ptr" = type { ptr }
%struct.hb_subset_input_t = type { %struct.hb_object_header_t, %union.anon, i32, i8, i8, %struct.hb_hashmap_t, %struct.hb_map_t }
%struct.hb_object_header_t = type { %struct.hb_reference_count_t, %struct.hb_atomic_int_t, %struct.hb_atomic_ptr_t }
%struct.hb_reference_count_t = type { %struct.hb_atomic_int_t }
%struct.hb_atomic_int_t = type { i32 }
%struct.hb_atomic_ptr_t = type { ptr }
%union.anon = type { %"struct.hb_subset_input_t::sets_t" }
%"struct.hb_subset_input_t::sets_t" = type { %"struct.hb::shared_ptr", %"struct.hb::shared_ptr", %"struct.hb::shared_ptr", %"struct.hb::shared_ptr", %"struct.hb::shared_ptr", %"struct.hb::shared_ptr", %"struct.hb::shared_ptr", %"struct.hb::shared_ptr" }
%struct.hb_hashmap_t = type { %struct.hb_object_header_t, i8, i16, i32, i32, i32, i32, ptr }
%struct.hb_map_t = type { %struct.hb_hashmap_t.0 }
%struct.hb_hashmap_t.0 = type { %struct.hb_object_header_t, i8, i16, i32, i32, i32, i32, ptr }
%struct.Triple = type { double, double, double }
%struct.hb_ot_var_axis_info_t = type { i32, i32, i32, i32, float, float, float, i32 }

@_ZL8hb_clamp = internal constant %struct.anon.6 zeroinitializer, align 1
@_ZL6hb_max = internal constant %struct.anon.7 zeroinitializer, align 1
@_ZL6hb_min = internal constant %struct.anon.8 zeroinitializer, align 1
@_ZL7hb_hash = internal constant %struct.anon.40 zeroinitializer, align 1

; Function Attrs: mustprogress nounwind uwtable
define internal noundef i32 @"_ZNK3$_34implIjTnPN12hb_enable_ifIXaasr3std11is_integralIT_EE5valuelestS2_Lm4EEvE4typeELPv0EEEN10_hb_head_tIjJDTmlcvjfp_Lj2654435761EEEE4typeERKS2_11hb_priorityILj1EE"(ptr noundef nonnull align 1 dereferenceable(1) %0, ptr noundef nonnull align 4 dereferenceable(4) %1) #0 align 2 {
  %3 = alloca ptr, align 8
  %4 = alloca ptr, align 8
  store ptr %0, ptr %3, align 8, !tbaa !56
  store ptr %1, ptr %4, align 8, !tbaa !48
  %5 = load ptr, ptr %4, align 8, !tbaa !48
  %6 = load i32, ptr %5, align 4, !tbaa !43
  %7 = mul i32 %6, -1640531535
  ret i32 %7
}

; Function Attrs: mustprogress nounwind uwtable
define internal noundef i32 @"_ZNK3$_3clIjEEN10_hb_head_tIjJDTcl4implfp_cv11hb_priorityILj16EE_EEEEE4typeERKT_"(ptr noundef nonnull align 1 dereferenceable(1) %0, ptr noundef nonnull align 4 dereferenceable(4) %1) #0 align 2 {
  %3 = alloca ptr, align 8
  %4 = alloca ptr, align 8
  store ptr %0, ptr %3, align 8, !tbaa !56
  store ptr %1, ptr %4, align 8, !tbaa !48
  %5 = load ptr, ptr %3, align 8
  %6 = load ptr, ptr %4, align 8, !tbaa !48
  %7 = call noundef i32 @"_ZNK3$_34implIjTnPN12hb_enable_ifIXaasr3std11is_integralIT_EE5valuelestS2_Lm4EEvE4typeELPv0EEEN10_hb_head_tIjJDTmlcvjfp_Lj2654435761EEEE4typeERKS2_11hb_priorityILj1EE"(ptr noundef nonnull align 1 dereferenceable(1) %5, ptr noundef nonnull align 4 dereferenceable(4) %6)
  ret i32 %7
}

; Function Attrs: mustprogress nounwind uwtable
define internal noundef nonnull align 8 dereferenceable(8) ptr @"_ZNK3$_2clIRddEEDTqulefp_fp0_fp_fp0_EOT_OT0_"(ptr noundef nonnull align 1 dereferenceable(1) %0, ptr noundef nonnull align 8 dereferenceable(8) %1, ptr noundef nonnull align 8 dereferenceable(8) %2) #0 align 2 {
  %4 = alloca ptr, align 8
  %5 = alloca ptr, align 8
  %6 = alloca ptr, align 8
  store ptr %0, ptr %4, align 8, !tbaa !56
  store ptr %1, ptr %5, align 8, !tbaa !89
  store ptr %2, ptr %6, align 8, !tbaa !89
  %7 = load ptr, ptr %5, align 8, !tbaa !89
  %8 = load double, ptr %7, align 8, !tbaa !74
  %9 = load ptr, ptr %6, align 8, !tbaa !89
  %10 = load double, ptr %9, align 8, !tbaa !74
  %11 = fcmp ole double %8, %10
  br i1 %11, label %12, label %14

12:                                               ; preds = %3
  %13 = load ptr, ptr %5, align 8, !tbaa !89
  br label %16

14:                                               ; preds = %3
  %15 = load ptr, ptr %6, align 8, !tbaa !89
  br label %16

16:                                               ; preds = %14, %12
  %17 = phi ptr [ %13, %12 ], [ %15, %14 ]
  ret ptr %17
}

; Function Attrs: mustprogress nounwind uwtable
define internal noundef nonnull align 8 dereferenceable(8) ptr @"_ZNK3$_0clIddEEDTqugefp_fp0_fp_fp0_EOT_OT0_"(ptr noundef nonnull align 1 dereferenceable(1) %0, ptr noundef nonnull align 8 dereferenceable(8) %1, ptr noundef nonnull align 8 dereferenceable(8) %2) #0 align 2 {
  %4 = alloca ptr, align 8
  %5 = alloca ptr, align 8
  %6 = alloca ptr, align 8
  store ptr %0, ptr %4, align 8, !tbaa !56
  store ptr %1, ptr %5, align 8, !tbaa !89
  store ptr %2, ptr %6, align 8, !tbaa !89
  %7 = load ptr, ptr %5, align 8, !tbaa !89
  %8 = load double, ptr %7, align 8, !tbaa !74
  %9 = load ptr, ptr %6, align 8, !tbaa !89
  %10 = load double, ptr %9, align 8, !tbaa !74
  %11 = fcmp oge double %8, %10
  br i1 %11, label %12, label %14

12:                                               ; preds = %3
  %13 = load ptr, ptr %5, align 8, !tbaa !89
  br label %16

14:                                               ; preds = %3
  %15 = load ptr, ptr %6, align 8, !tbaa !89
  br label %16

16:                                               ; preds = %14, %12
  %17 = phi ptr [ %13, %12 ], [ %15, %14 ]
  ret ptr %17
}

; Function Attrs: mustprogress nounwind uwtable
define linkonce_odr dso_local noundef zeroext i1 @_ZN12hb_hashmap_tIj6TripleLb0EE3setIS0_EEbRKjOT_b(ptr noundef nonnull align 8 dereferenceable(48) %0, ptr noundef nonnull align 4 dereferenceable(4) %1, ptr noundef nonnull align 8 dereferenceable(24) %2, i1 noundef zeroext %3) #0 comdat align 2 {
  %5 = alloca ptr, align 8
  %6 = alloca ptr, align 8
  %7 = alloca ptr, align 8
  %8 = alloca i8, align 1
  store ptr %0, ptr %5, align 8, !tbaa !32
  store ptr %1, ptr %6, align 8, !tbaa !48
  store ptr %2, ptr %7, align 8, !tbaa !77
  %9 = zext i1 %3 to i8
  store i8 %9, ptr %8, align 1, !tbaa !79
  %10 = load ptr, ptr %5, align 8
  %11 = load ptr, ptr %6, align 8, !tbaa !48
  %12 = load ptr, ptr %6, align 8, !tbaa !48
  %13 = call noundef i32 @"_ZNK3$_3clIjEEN10_hb_head_tIjJDTcl4implfp_cv11hb_priorityILj16EE_EEEEE4typeERKT_"(ptr noundef nonnull align 1 dereferenceable(1) @_ZL7hb_hash, ptr noundef nonnull align 4 dereferenceable(4) %12)
  %14 = load ptr, ptr %7, align 8, !tbaa !77
  %15 = load i8, ptr %8, align 1, !tbaa !79, !range !80, !noundef !81
  %16 = trunc i8 %15 to i1
  %17 = call noundef zeroext i1 @_ZN12hb_hashmap_tIj6TripleLb0EE13set_with_hashIRKjS0_EEbOT_jOT0_b(ptr noundef nonnull align 8 dereferenceable(48) %10, ptr noundef nonnull align 4 dereferenceable(4) %11, i32 noundef %13, ptr noundef nonnull align 8 dereferenceable(24) %14, i1 noundef zeroext %16)
  ret i1 %17
}

; Function Attrs: mustprogress nounwind uwtable
define linkonce_odr dso_local void @_ZN6TripleC2Eddd(ptr noundef nonnull align 8 dereferenceable(24) %0, double noundef %1, double noundef %2, double noundef %3) unnamed_addr #0 comdat align 2 {
  %5 = alloca ptr, align 8
  %6 = alloca double, align 8
  %7 = alloca double, align 8
  %8 = alloca double, align 8
  store ptr %0, ptr %5, align 8, !tbaa !77
  store double %1, ptr %6, align 8, !tbaa !74
  store double %2, ptr %7, align 8, !tbaa !74
  store double %3, ptr %8, align 8, !tbaa !74
  %9 = load ptr, ptr %5, align 8
  %10 = getelementptr inbounds nuw %struct.Triple, ptr %9, i32 0, i32 0
  %11 = load double, ptr %6, align 8, !tbaa !74
  store double %11, ptr %10, align 8, !tbaa !82
  %12 = getelementptr inbounds nuw %struct.Triple, ptr %9, i32 0, i32 1
  %13 = load double, ptr %7, align 8, !tbaa !74
  store double %13, ptr %12, align 8, !tbaa !84
  %14 = getelementptr inbounds nuw %struct.Triple, ptr %9, i32 0, i32 2
  %15 = load double, ptr %8, align 8, !tbaa !74
  store double %15, ptr %14, align 8, !tbaa !85
  ret void
}

; Function Attrs: mustprogress nounwind uwtable
define internal noundef nonnull align 8 dereferenceable(8) ptr @"_ZNK3$_4clIdddEEDTclL_ZL6hb_minEclL_ZL6hb_maxEclsr3stdE7forwardIT_Efp_Eclsr3stdE7forwardIT0_Efp0_EEclsr3stdE7forwardIT1_Efp1_EEEOS1_OS2_OS3_"(ptr noundef nonnull align 1 dereferenceable(1) %0, ptr noundef nonnull align 8 dereferenceable(8) %1, ptr noundef nonnull align 8 dereferenceable(8) %2, ptr noundef nonnull align 8 dereferenceable(8) %3) #0 align 2 {
  %5 = alloca ptr, align 8
  %6 = alloca ptr, align 8
  %7 = alloca ptr, align 8
  %8 = alloca ptr, align 8
  store ptr %0, ptr %5, align 8, !tbaa !56
  store ptr %1, ptr %6, align 8, !tbaa !89
  store ptr %2, ptr %7, align 8, !tbaa !89
  store ptr %3, ptr %8, align 8, !tbaa !89
  %9 = load ptr, ptr %6, align 8, !tbaa !89
  %10 = load ptr, ptr %7, align 8, !tbaa !89
  %11 = call noundef nonnull align 8 dereferenceable(8) ptr @"_ZNK3$_0clIddEEDTqugefp_fp0_fp_fp0_EOT_OT0_"(ptr noundef nonnull align 1 dereferenceable(1) @_ZL6hb_max, ptr noundef nonnull align 8 dereferenceable(8) %9, ptr noundef nonnull align 8 dereferenceable(8) %10)
  %12 = load ptr, ptr %8, align 8, !tbaa !89
  %13 = call noundef nonnull align 8 dereferenceable(8) ptr @"_ZNK3$_2clIRddEEDTqulefp_fp0_fp_fp0_EOT_OT0_"(ptr noundef nonnull align 1 dereferenceable(1) @_ZL6hb_min, ptr noundef nonnull align 8 dereferenceable(8) %11, ptr noundef nonnull align 8 dereferenceable(8) %12)
  ret ptr %13
}

; Function Attrs: mustprogress nounwind uwtable
define dso_local i32 @hb_subset_input_pin_axis_location(ptr noundef %0, ptr noundef %1, i32 noundef %2, float noundef %3) #0 {
  %5 = alloca i32, align 4
  %6 = alloca ptr, align 8
  %7 = alloca ptr, align 8
  %8 = alloca i32, align 4
  %9 = alloca float, align 4
  %10 = alloca %struct.hb_ot_var_axis_info_t, align 4
  %11 = alloca i32, align 4
  %12 = alloca double, align 8
  %13 = alloca double, align 8
  %14 = alloca double, align 8
  %15 = alloca double, align 8
  %16 = alloca %struct.Triple, align 8
  store ptr %0, ptr %6, align 8, !tbaa !4
  store ptr %1, ptr %7, align 8, !tbaa !65
  store i32 %2, ptr %8, align 4, !tbaa !43
  store float %3, ptr %9, align 4, !tbaa !86
  call void @llvm.lifetime.start.p0(i64 32, ptr %10) #13
  %17 = load ptr, ptr %7, align 8, !tbaa !65
  %18 = load i32, ptr %8, align 4, !tbaa !43
  %19 = call i32 @hb_ot_var_find_axis_info(ptr noundef %17, i32 noundef %18, ptr noundef %10)
  %20 = icmp ne i32 %19, 0
  br i1 %20, label %22, label %21

21:                                               ; preds = %4
  store i32 0, ptr %5, align 4
  store i32 1, ptr %11, align 4
  br label %40

22:                                               ; preds = %4
  call void @llvm.lifetime.start.p0(i64 8, ptr %12) #13
  call void @llvm.lifetime.start.p0(i64 8, ptr %13) #13
  %23 = load float, ptr %9, align 4, !tbaa !86
  %24 = fpext float %23 to double
  store double %24, ptr %13, align 8, !tbaa !74
  call void @llvm.lifetime.start.p0(i64 8, ptr %14) #13
  %25 = getelementptr inbounds nuw %struct.hb_ot_var_axis_info_t, ptr %10, i32 0, i32 4
  %26 = load float, ptr %25, align 4, !tbaa !87
  %27 = fpext float %26 to double
  store double %27, ptr %14, align 8, !tbaa !74
  call void @llvm.lifetime.start.p0(i64 8, ptr %15) #13
  %28 = getelementptr inbounds nuw %struct.hb_ot_var_axis_info_t, ptr %10, i32 0, i32 6
  %29 = load float, ptr %28, align 4, !tbaa !88
  %30 = fpext float %29 to double
  store double %30, ptr %15, align 8, !tbaa !74
  %31 = call noundef nonnull align 8 dereferenceable(8) ptr @"_ZNK3$_4clIdddEEDTclL_ZL6hb_minEclL_ZL6hb_maxEclsr3stdE7forwardIT_Efp_Eclsr3stdE7forwardIT0_Efp0_EEclsr3stdE7forwardIT1_Efp1_EEEOS1_OS2_OS3_"(ptr noundef nonnull align 1 dereferenceable(1) @_ZL8hb_clamp, ptr noundef nonnull align 8 dereferenceable(8) %13, ptr noundef nonnull align 8 dereferenceable(8) %14, ptr noundef nonnull align 8 dereferenceable(8) %15)
  %32 = load double, ptr %31, align 8, !tbaa !74
  call void @llvm.lifetime.end.p0(i64 8, ptr %15) #13
  call void @llvm.lifetime.end.p0(i64 8, ptr %14) #13
  call void @llvm.lifetime.end.p0(i64 8, ptr %13) #13
  store double %32, ptr %12, align 8, !tbaa !74
  %33 = load ptr, ptr %6, align 8, !tbaa !4
  %34 = getelementptr inbounds nuw %struct.hb_subset_input_t, ptr %33, i32 0, i32 5
  call void @llvm.lifetime.start.p0(i64 24, ptr %16) #13
  %35 = load double, ptr %12, align 8, !tbaa !74
  %36 = load double, ptr %12, align 8, !tbaa !74
  %37 = load double, ptr %12, align 8, !tbaa !74
  call void @_ZN6TripleC2Eddd(ptr noundef nonnull align 8 dereferenceable(24) %16, double noundef %35, double noundef %36, double noundef %37)
  %38 = call noundef zeroext i1 @_ZN12hb_hashmap_tIj6TripleLb0EE3setIS0_EEbRKjOT_b(ptr noundef nonnull align 8 dereferenceable(48) %34, ptr noundef nonnull align 4 dereferenceable(4) %8, ptr noundef nonnull align 8 dereferenceable(24) %16, i1 noundef zeroext true)
  %39 = zext i1 %38 to i32
  store i32 %39, ptr %5, align 4
  call void @llvm.lifetime.end.p0(i64 24, ptr %16) #13
  store i32 1, ptr %11, align 4
  call void @llvm.lifetime.end.p0(i64 8, ptr %12) #13
  br label %40

40:                                               ; preds = %22, %21
  call void @llvm.lifetime.end.p0(i64 32, ptr %10) #13
  %41 = load i32, ptr %5, align 4
  ret i32 %41
}