; Function Attrs: mustprogress nounwind uwtable
define dso_local range(i32 0, 2) i32 @hb_subset_input_pin_axis_location(ptr noundef %0, ptr noundef %1, i32 noundef %2, float noundef %3) local_unnamed_addr #0 {
  %5 = alloca i32, align 4
  %6 = alloca %struct.hb_ot_var_axis_info_t, align 4
  %7 = alloca %struct.Triple, align 8
  store i32 %2, ptr %5, align 4, !tbaa !52
  call void @llvm.lifetime.start.p0(i64 32, ptr nonnull %6) #21
  %8 = call i32 @hb_ot_var_find_axis_info(ptr noundef %1, i32 noundef %2, ptr noundef nonnull %6) #21
  %.not = icmp eq i32 %8, 0
  br i1 %.not, label %22, label %9

9:                                                ; preds = %4
  %10 = getelementptr inbounds nuw i8, ptr %6, i64 16
  %11 = load float, ptr %10, align 4, !tbaa !82
  %12 = getelementptr inbounds nuw i8, ptr %6, i64 24
  %13 = load float, ptr %12, align 4, !tbaa !83
  %14 = fcmp oge float %3, %11
  %.v = select i1 %14, float %3, float %11
  %15 = fcmp ole float %.v, %13
  %.sroa.speculated.v = select i1 %15, float %.v, float %13
  %.sroa.speculated = fpext float %.sroa.speculated.v to double
  %16 = getelementptr inbounds nuw i8, ptr %0, i64 88
  call void @llvm.lifetime.start.p0(i64 24, ptr nonnull %7) #21
  store double %.sroa.speculated, ptr %7, align 8, !tbaa !76
  %17 = getelementptr inbounds nuw i8, ptr %7, i64 8
  store double %.sroa.speculated, ptr %17, align 8, !tbaa !79
  %18 = getelementptr inbounds nuw i8, ptr %7, i64 16
  store double %.sroa.speculated, ptr %18, align 8, !tbaa !80
  %19 = mul i32 %2, -1640531535
  %20 = call noundef zeroext i1 @_ZN12hb_hashmap_tIj6TripleLb0EE13set_with_hashIRKjS0_EEbOT_jOT0_b(ptr noundef nonnull align 8 dereferenceable(48) %16, ptr noundef nonnull align 4 dereferenceable(4) %5, i32 noundef %19, ptr noundef nonnull align 8 dereferenceable(24) %7, i1 noundef zeroext true)
  %21 = zext i1 %20 to i32
  call void @llvm.lifetime.end.p0(i64 24, ptr nonnull %7) #21
  br label %22

22:                                               ; preds = %4, %9
  %.0 = phi i32 [ %21, %9 ], [ 0, %4 ]
  call void @llvm.lifetime.end.p0(i64 32, ptr nonnull %6) #21
  ret i32 %.0
}